; Function Attrs: nounwind uwtable
define noalias noundef nonnull ptr @l_Lean_withTraceNode___at_Lean_Meta_SynthInstance_newSubgoal___spec__8___lambda__2(ptr noundef %0, i8 noundef zeroext %1, ptr noundef %2, ptr noundef %3, ptr noundef %4, ptr noundef %5, i8 noundef zeroext %6, double noundef %7, double noundef %8, ptr noundef %9, ptr noundef readnone captures(none) %10, ptr noundef readnone captures(none) %11, ptr noundef %12, ptr noundef %13, ptr noundef %14, ptr noundef %15, ptr noundef %16) local_unnamed_addr #1 {
  %18 = icmp eq i8 %6, 0
  br i1 %18, label %19, label %24

19:                                               ; preds = %17
  %20 = load double, ptr @l_Lean_withTraceNode___at_Lean_Meta_SynthInstance_newSubgoal___spec__8___lambda__2___closed__1, align 8, !tbaa !21
  tail call void @lean_inc_heartbeat() #7
  %21 = tail call noalias ptr @mi_malloc_small(i64 noundef 48) #7
  %22 = icmp eq ptr %21, null
  br i1 %22, label %23, label %lean_alloc_ctor.exit

23:                                               ; preds = %19
  tail call void @lean_internal_panic_out_of_memory() #8
  unreachable

24:                                               ; preds = %17
  tail call void @lean_inc_heartbeat() #7
  %25 = tail call noalias ptr @mi_malloc_small(i64 noundef 48) #7
  %26 = icmp eq ptr %25, null
  br i1 %26, label %27, label %lean_alloc_ctor.exit

27:                                               ; preds = %24
  tail call void @lean_internal_panic_out_of_memory() #8
  unreachable

lean_alloc_ctor.exit:                             ; preds = %24, %19
  %.sink66 = phi ptr [ %21, %19 ], [ %25, %24 ]
  %.sink55 = phi double [ %20, %19 ], [ %7, %24 ]
  %.sink52 = phi double [ %20, %19 ], [ %8, %24 ]
  %28 = getelementptr inbounds nuw i8, ptr %.sink66, i64 4
  %29 = getelementptr inbounds nuw i8, ptr %.sink66, i64 40
  store i64 0, ptr %29, align 8, !tbaa !12
  store i32 1, ptr %.sink66, align 4, !tbaa !4
  store i32 131120, ptr %28, align 4
  %30 = getelementptr inbounds nuw i8, ptr %.sink66, i64 8
  store ptr %0, ptr %30, align 8, !tbaa !9
  %31 = getelementptr inbounds nuw i8, ptr %.sink66, i64 16
  store ptr %2, ptr %31, align 8, !tbaa !9
  %32 = getelementptr inbounds nuw i8, ptr %.sink66, i64 24
  store double %.sink55, ptr %32, align 8, !tbaa !21
  %33 = getelementptr inbounds nuw i8, ptr %.sink66, i64 32
  store double %.sink52, ptr %33, align 8, !tbaa !21
  store i8 %1, ptr %29, align 1, !tbaa !18
  %34 = tail call ptr @l_Lean_withTraceNode___at_Lean_Meta_SynthInstance_newSubgoal___spec__8___lambda__1(ptr noundef %3, ptr noundef %4, ptr noundef %9, ptr noundef %5, ptr noundef nonnull %.sink66, ptr nonnull poison, ptr poison, ptr poison, ptr noundef %12, ptr noundef %13, ptr noundef %14, ptr noundef %15, ptr noundef %16)
  ret ptr %34
}